target datalayout = "e-m:e-p270:32:32-p271:32:32-p272:64:64-i64:64-i128:128-f80:128-n8:16:32:64-S128"
target triple = "x86_64-pc-linux-gnu"

%struct.H5CX_node_t = type { %struct.H5CX_t, ptr }
%struct.H5CX_t = type { i64, ptr, i64, ptr, i64, ptr, i64, ptr, i64, ptr, i64, ptr, i64, i32, i64, i8, ptr, i8, ptr, i8, i32, i8, [3 x double], i8, i64, i8, i32, i8, %struct.H5Z_cb_t, i8, ptr, i8, %struct.H5T_vlen_alloc_info_t, i8, %struct.H5T_conv_cb_t, i8, i32, i8, i8, i8, i32, i8, i8, i32, i8, i8, i32, i8, i32, i8, i64, i8, i8, i8, i8, i8, ptr, i8, ptr, i8, i32, i8, i32, i8, %struct.H5VL_connector_prop_t, i8, ptr, i8 }
%struct.H5Z_cb_t = type { ptr, ptr }
%struct.H5T_vlen_alloc_info_t = type { ptr, ptr, ptr, ptr }
%struct.H5T_conv_cb_t = type { ptr, ptr }
%struct.H5VL_connector_prop_t = type { ptr, ptr }

@H5E_init_g = global i8 0, align 1
@H5_libinit_g = external global i8, align 1
@H5_libterm_g = external global i8, align 1
@.str = private unnamed_addr constant [97 x i8] c"generated/home/dtcxzyw/WorkSpace/Projects/compilers/llvm-opt-benchmark/bench/hdf5/hdf5/src/H5E.c\00", align 1
@H5E_FUNC_g = external global i64, align 8
@H5E_CANTINIT_g = external global i64, align 8
@.str.1 = private unnamed_addr constant [30 x i8] c"library initialization failed\00", align 1
@.str.2 = private unnamed_addr constant [32 x i8] c"interface initialization failed\00", align 1
@H5E_CANTSET_g = external global i64, align 8
@.str.3 = private unnamed_addr constant [22 x i8] c"can't set API context\00", align 1
@H5E_ARGS_g = external global i64, align 8
@H5E_ERROR_g = external global i64, align 8
@H5E_BADTYPE_g = external global i64, align 8
@H5E_CANTDEC_g = external global i64, align 8
@__func__.H5Eappend_stack = private unnamed_addr constant [16 x i8] c"H5Eappend_stack\00", align 1
@.str.41 = private unnamed_addr constant [34 x i8] c"dst_stack_id not a error stack ID\00", align 1
@.str.42 = private unnamed_addr constant [34 x i8] c"src_stack_id not a error stack ID\00", align 1
@H5E_CANTAPPEND_g = external global i64, align 8
@.str.43 = private unnamed_addr constant [19 x i8] c"can't append stack\00", align 1
@.str.44 = private unnamed_addr constant [52 x i8] c"unable to decrement ref count on source error stack\00", align 1

; Function Attrs: nounwind uwtable
define i32 @H5Eappend_stack(i64 noundef %0, i64 noundef %1, i1 noundef zeroext %2) #0 {
  %4 = alloca i64, align 8
  %5 = alloca i64, align 8
  %6 = alloca i8, align 1
  %7 = alloca ptr, align 8
  %8 = alloca ptr, align 8
  %9 = alloca i32, align 4
  %10 = alloca %struct.H5CX_node_t, align 8
  %11 = alloca i8, align 1
  %12 = alloca i8, align 1
  store i64 %0, ptr %4, align 8, !tbaa !8
  store i64 %1, ptr %5, align 8, !tbaa !8
  %13 = zext i1 %2 to i8
  store i8 %13, ptr %6, align 1, !tbaa !10
  call void @llvm.lifetime.start.p0(i64 8, ptr %7) #7
  call void @llvm.lifetime.start.p0(i64 8, ptr %8) #7
  call void @llvm.lifetime.start.p0(i64 4, ptr %9) #7
  store i32 0, ptr %9, align 4, !tbaa !16
  call void @llvm.lifetime.start.p0(i64 480, ptr %10) #7
  call void @llvm.memset.p0.i64(ptr align 8 %10, i8 0, i64 480, i1 false)
  call void @llvm.lifetime.start.p0(i64 1, ptr %11) #7
  store i8 0, ptr %11, align 1, !tbaa !10
  call void @llvm.lifetime.start.p0(i64 1, ptr %12) #7
  store i8 0, ptr %12, align 1, !tbaa !10
  br label %14

14:                                               ; preds = %3
  %15 = load i8, ptr @H5_libinit_g, align 1, !tbaa !10, !range !12, !noundef !13
  %16 = trunc i8 %15 to i1
  br i1 %16, label %21, label %17

17:                                               ; preds = %14
  %18 = load i8, ptr @H5_libterm_g, align 1, !tbaa !10, !range !12, !noundef !13
  %19 = trunc i8 %18 to i1
  %20 = xor i1 %19, true
  br label %21

21:                                               ; preds = %17, %14
  %22 = phi i1 [ false, %14 ], [ %20, %17 ]
  %23 = xor i1 %22, true
  %24 = xor i1 %23, true
  %25 = zext i1 %24 to i32
  %26 = sext i32 %25 to i64
  %27 = call i64 @llvm.expect.i64(i64 %26, i64 0)
  %28 = icmp ne i64 %27, 0
  br i1 %28, label %29, label %58

29:                                               ; preds = %21
  %30 = call i32 @H5_init_library()
  %31 = icmp slt i32 %30, 0
  %32 = xor i1 %31, true
  %33 = xor i1 %32, true
  %34 = zext i1 %33 to i32
  %35 = sext i32 %34 to i64
  %36 = call i64 @llvm.expect.i64(i64 %35, i64 0)
  %37 = icmp ne i64 %36, 0
  br i1 %37, label %38, label %57

38:                                               ; preds = %29
  br label %39

39:                                               ; preds = %38
  br label %40

40:                                               ; preds = %39
  br label %41

41:                                               ; preds = %40
  %42 = load i64, ptr @H5E_FUNC_g, align 8, !tbaa !8
  %43 = load i64, ptr @H5E_CANTINIT_g, align 8, !tbaa !8
  %44 = call i32 (ptr, ptr, i32, i64, i64, ptr, ...) @H5E_printf_stack(ptr noundef @.str, ptr noundef @__func__.H5Eappend_stack, i32 noundef 872, i64 noundef %42, i64 noundef %43, ptr noundef @.str.1)
  br label %45

45:                                               ; preds = %41
  br label %46

46:                                               ; preds = %45
  store i8 1, ptr %12, align 1, !tbaa !10
  %47 = load i8, ptr %12, align 1, !tbaa !10, !range !12, !noundef !13
  %48 = trunc i8 %47 to i1
  %49 = zext i1 %48 to i8
  store i8 %49, ptr %12, align 1, !tbaa !10
  br label %50

50:                                               ; preds = %46
  br label %51

51:                                               ; preds = %50
  br label %52

52:                                               ; preds = %51
  store i32 -1, ptr %9, align 4, !tbaa !16
  br label %229

53:                                               ; No predecessors!
  br label %54

54:                                               ; preds = %53
  br label %55

55:                                               ; preds = %54
  br label %56

56:                                               ; preds = %55
  br label %57

57:                                               ; preds = %56, %29
  br label %58

58:                                               ; preds = %57, %21
  %59 = load i8, ptr @H5E_init_g, align 1, !tbaa !10, !range !12, !noundef !13
  %60 = trunc i8 %59 to i1
  br i1 %60, label %65, label %61

61:                                               ; preds = %58
  %62 = load i8, ptr @H5_libterm_g, align 1, !tbaa !10, !range !12, !noundef !13
  %63 = trunc i8 %62 to i1
  %64 = xor i1 %63, true
  br label %65

65:                                               ; preds = %61, %58
  %66 = phi i1 [ false, %58 ], [ %64, %61 ]
  %67 = xor i1 %66, true
  %68 = xor i1 %67, true
  %69 = zext i1 %68 to i32
  %70 = sext i32 %69 to i64
  %71 = call i64 @llvm.expect.i64(i64 %70, i64 0)
  %72 = icmp ne i64 %71, 0
  br i1 %72, label %73, label %96

73:                                               ; preds = %65
  store i8 1, ptr @H5E_init_g, align 1, !tbaa !10
  %74 = call i32 @H5E__init_package()
  %75 = icmp slt i32 %74, 0
  br i1 %75, label %76, label %95

76:                                               ; preds = %73
  store i8 0, ptr @H5E_init_g, align 1, !tbaa !10
  br label %77

77:                                               ; preds = %76
  br label %78

78:                                               ; preds = %77
  br label %79

79:                                               ; preds = %78
  %80 = load i64, ptr @H5E_FUNC_g, align 8, !tbaa !8
  %81 = load i64, ptr @H5E_CANTINIT_g, align 8, !tbaa !8
  %82 = call i32 (ptr, ptr, i32, i64, i64, ptr, ...) @H5E_printf_stack(ptr noundef @.str, ptr noundef @__func__.H5Eappend_stack, i32 noundef 872, i64 noundef %80, i64 noundef %81, ptr noundef @.str.2)
  br label %83

83:                                               ; preds = %79
  br label %84

84:                                               ; preds = %83
  store i8 1, ptr %12, align 1, !tbaa !10
  %85 = load i8, ptr %12, align 1, !tbaa !10, !range !12, !noundef !13
  %86 = trunc i8 %85 to i1
  %87 = zext i1 %86 to i8
  store i8 %87, ptr %12, align 1, !tbaa !10
  br label %88

88:                                               ; preds = %84
  br label %89

89:                                               ; preds = %88
  br label %90

90:                                               ; preds = %89
  store i32 -1, ptr %9, align 4, !tbaa !16
  br label %229

91:                                               ; No predecessors!
  br label %92

92:                                               ; preds = %91
  br label %93

93:                                               ; preds = %92
  br label %94

94:                                               ; preds = %93
  br label %95

95:                                               ; preds = %94, %73
  br label %96

96:                                               ; preds = %95, %65
  br label %97

97:                                               ; preds = %96
  br label %98

98:                                               ; preds = %97
  br label %99

99:                                               ; preds = %98
  %100 = call i32 @H5CX_push(ptr noundef %10)
  %101 = icmp slt i32 %100, 0
  %102 = xor i1 %101, true
  %103 = xor i1 %102, true
  %104 = zext i1 %103 to i32
  %105 = sext i32 %104 to i64
  %106 = call i64 @llvm.expect.i64(i64 %105, i64 0)
  %107 = icmp ne i64 %106, 0
  br i1 %107, label %108, label %127

108:                                              ; preds = %99
  br label %109

109:                                              ; preds = %108
  br label %110

110:                                              ; preds = %109
  br label %111

111:                                              ; preds = %110
  %112 = load i64, ptr @H5E_FUNC_g, align 8, !tbaa !8
  %113 = load i64, ptr @H5E_CANTSET_g, align 8, !tbaa !8
  %114 = call i32 (ptr, ptr, i32, i64, i64, ptr, ...) @H5E_printf_stack(ptr noundef @.str, ptr noundef @__func__.H5Eappend_stack, i32 noundef 872, i64 noundef %112, i64 noundef %113, ptr noundef @.str.3)
  br label %115

115:                                              ; preds = %111
  br label %116

116:                                              ; preds = %115
  store i8 1, ptr %12, align 1, !tbaa !10
  %117 = load i8, ptr %12, align 1, !tbaa !10, !range !12, !noundef !13
  %118 = trunc i8 %117 to i1
  %119 = zext i1 %118 to i8
  store i8 %119, ptr %12, align 1, !tbaa !10
  br label %120

120:                                              ; preds = %116
  br label %121

121:                                              ; preds = %120
  br label %122

122:                                              ; preds = %121
  store i32 -1, ptr %9, align 4, !tbaa !16
  br label %229

123:                                              ; No predecessors!
  br label %124

124:                                              ; preds = %123
  br label %125

125:                                              ; preds = %124
  br label %126

126:                                              ; preds = %125
  br label %128

127:                                              ; preds = %99
  store i8 1, ptr %11, align 1, !tbaa !10
  br label %128

128:                                              ; preds = %127, %126
  br label %129

129:                                              ; preds = %128
  br label %130

130:                                              ; preds = %129
  %131 = call i32 @H5E_clear_stack()
  %132 = load i64, ptr %4, align 8, !tbaa !8
  %133 = call ptr @H5I_object_verify(i64 noundef %132, i32 noundef 14)
  store ptr %133, ptr %7, align 8, !tbaa !21
  %134 = icmp eq ptr null, %133
  br i1 %134, label %135, label %154

135:                                              ; preds = %130
  br label %136

136:                                              ; preds = %135
  br label %137

137:                                              ; preds = %136
  br label %138

138:                                              ; preds = %137
  %139 = load i64, ptr @H5E_ARGS_g, align 8, !tbaa !8
  %140 = load i64, ptr @H5E_BADTYPE_g, align 8, !tbaa !8
  %141 = call i32 (ptr, ptr, i32, i64, i64, ptr, ...) @H5E_printf_stack(ptr noundef @.str, ptr noundef @__func__.H5Eappend_stack, i32 noundef 876, i64 noundef %139, i64 noundef %140, ptr noundef @.str.41)
  br label %142

142:                                              ; preds = %138
  br label %143

143:                                              ; preds = %142
  store i8 1, ptr %12, align 1, !tbaa !10
  %144 = load i8, ptr %12, align 1, !tbaa !10, !range !12, !noundef !13
  %145 = trunc i8 %144 to i1
  %146 = zext i1 %145 to i8
  store i8 %146, ptr %12, align 1, !tbaa !10
  br label %147

147:                                              ; preds = %143
  br label %148

148:                                              ; preds = %147
  br label %149

149:                                              ; preds = %148
  store i32 -1, ptr %9, align 4, !tbaa !16
  br label %229

150:                                              ; No predecessors!
  br label %151

151:                                              ; preds = %150
  br label %152

152:                                              ; preds = %151
  br label %153

153:                                              ; preds = %152
  br label %154

154:                                              ; preds = %153, %130
  %155 = load i64, ptr %5, align 8, !tbaa !8
  %156 = call ptr @H5I_object_verify(i64 noundef %155, i32 noundef 14)
  store ptr %156, ptr %8, align 8, !tbaa !21
  %157 = icmp eq ptr null, %156
  br i1 %157, label %158, label %177

158:                                              ; preds = %154
  br label %159

159:                                              ; preds = %158
  br label %160

160:                                              ; preds = %159
  br label %161

161:                                              ; preds = %160
  %162 = load i64, ptr @H5E_ARGS_g, align 8, !tbaa !8
  %163 = load i64, ptr @H5E_BADTYPE_g, align 8, !tbaa !8
  %164 = call i32 (ptr, ptr, i32, i64, i64, ptr, ...) @H5E_printf_stack(ptr noundef @.str, ptr noundef @__func__.H5Eappend_stack, i32 noundef 878, i64 noundef %162, i64 noundef %163, ptr noundef @.str.42)
  br label %165

165:                                              ; preds = %161
  br label %166

166:                                              ; preds = %165
  store i8 1, ptr %12, align 1, !tbaa !10
  %167 = load i8, ptr %12, align 1, !tbaa !10, !range !12, !noundef !13
  %168 = trunc i8 %167 to i1
  %169 = zext i1 %168 to i8
  store i8 %169, ptr %12, align 1, !tbaa !10
  br label %170

170:                                              ; preds = %166
  br label %171

171:                                              ; preds = %170
  br label %172

172:                                              ; preds = %171
  store i32 -1, ptr %9, align 4, !tbaa !16
  br label %229

173:                                              ; No predecessors!
  br label %174

174:                                              ; preds = %173
  br label %175

175:                                              ; preds = %174
  br label %176

176:                                              ; preds = %175
  br label %177

177:                                              ; preds = %176, %154
  %178 = load ptr, ptr %7, align 8, !tbaa !21
  %179 = load ptr, ptr %8, align 8, !tbaa !21
  %180 = call i32 @H5E__append_stack(ptr noundef %178, ptr noundef %179)
  %181 = icmp slt i32 %180, 0
  br i1 %181, label %182, label %201

182:                                              ; preds = %177
  br label %183

183:                                              ; preds = %182
  br label %184

184:                                              ; preds = %183
  br label %185

185:                                              ; preds = %184
  %186 = load i64, ptr @H5E_ERROR_g, align 8, !tbaa !8
  %187 = load i64, ptr @H5E_CANTAPPEND_g, align 8, !tbaa !8
  %188 = call i32 (ptr, ptr, i32, i64, i64, ptr, ...) @H5E_printf_stack(ptr noundef @.str, ptr noundef @__func__.H5Eappend_stack, i32 noundef 882, i64 noundef %186, i64 noundef %187, ptr noundef @.str.43)
  br label %189

189:                                              ; preds = %185
  br label %190

190:                                              ; preds = %189
  store i8 1, ptr %12, align 1, !tbaa !10
  %191 = load i8, ptr %12, align 1, !tbaa !10, !range !12, !noundef !13
  %192 = trunc i8 %191 to i1
  %193 = zext i1 %192 to i8
  store i8 %193, ptr %12, align 1, !tbaa !10
  br label %194

194:                                              ; preds = %190
  br label %195

195:                                              ; preds = %194
  br label %196

196:                                              ; preds = %195
  store i32 -1, ptr %9, align 4, !tbaa !16
  br label %229

197:                                              ; No predecessors!
  br label %198

198:                                              ; preds = %197
  br label %199

199:                                              ; preds = %198
  br label %200

200:                                              ; preds = %199
  br label %201

201:                                              ; preds = %200, %177
  %202 = load i8, ptr %6, align 1, !tbaa !10, !range !12, !noundef !13
  %203 = trunc i8 %202 to i1
  br i1 %203, label %204, label %228

204:                                              ; preds = %201
  %205 = load i64, ptr %5, align 8, !tbaa !8
  %206 = call i32 @H5I_dec_app_ref(i64 noundef %205)
  %207 = icmp slt i32 %206, 0
  br i1 %207, label %208, label %227

208:                                              ; preds = %204
  br label %209

209:                                              ; preds = %208
  br label %210

210:                                              ; preds = %209
  br label %211

211:                                              ; preds = %210
  %212 = load i64, ptr @H5E_ERROR_g, align 8, !tbaa !8
  %213 = load i64, ptr @H5E_CANTDEC_g, align 8, !tbaa !8
  %214 = call i32 (ptr, ptr, i32, i64, i64, ptr, ...) @H5E_printf_stack(ptr noundef @.str, ptr noundef @__func__.H5Eappend_stack, i32 noundef 890, i64 noundef %212, i64 noundef %213, ptr noundef @.str.44)
  br label %215

215:                                              ; preds = %211
  br label %216

216:                                              ; preds = %215
  store i8 1, ptr %12, align 1, !tbaa !10
  %217 = load i8, ptr %12, align 1, !tbaa !10, !range !12, !noundef !13
  %218 = trunc i8 %217 to i1
  %219 = zext i1 %218 to i8
  store i8 %219, ptr %12, align 1, !tbaa !10
  br label %220

220:                                              ; preds = %216
  br label %221

221:                                              ; preds = %220
  br label %222

222:                                              ; preds = %221
  store i32 -1, ptr %9, align 4, !tbaa !16
  br label %229

223:                                              ; No predecessors!
  br label %224

224:                                              ; preds = %223
  br label %225

225:                                              ; preds = %224
  br label %226

226:                                              ; preds = %225
  br label %227

227:                                              ; preds = %226, %204
  br label %228

228:                                              ; preds = %227, %201
  br label %229

229:                                              ; preds = %228, %222, %196, %172, %149, %122, %90, %52
  %230 = load i8, ptr %11, align 1, !tbaa !10, !range !12, !noundef !13
  %231 = trunc i8 %230 to i1
  %232 = xor i1 %231, true
  %233 = xor i1 %232, true
  %234 = zext i1 %233 to i32
  %235 = sext i32 %234 to i64
  %236 = call i64 @llvm.expect.i64(i64 %235, i64 1)
  %237 = icmp ne i64 %236, 0
  br i1 %237, label %238, label %240

238:                                              ; preds = %229
  %239 = call i32 @H5CX_pop(i1 noundef zeroext true)
  store i8 0, ptr %11, align 1, !tbaa !10
  br label %240

240:                                              ; preds = %238, %229
  %241 = load i8, ptr %12, align 1, !tbaa !10, !range !12, !noundef !13
  %242 = trunc i8 %241 to i1
  %243 = xor i1 %242, true
  %244 = xor i1 %243, true
  %245 = zext i1 %244 to i32
  %246 = sext i32 %245 to i64
  %247 = call i64 @llvm.expect.i64(i64 %246, i64 0)
  %248 = icmp ne i64 %247, 0
  br i1 %248, label %249, label %251

249:                                              ; preds = %240
  %250 = call i32 @H5E_dump_api_stack()
  br label %251

251:                                              ; preds = %249, %240
  %252 = load i32, ptr %9, align 4, !tbaa !16
  call void @llvm.lifetime.end.p0(i64 1, ptr %12) #7
  call void @llvm.lifetime.end.p0(i64 1, ptr %11) #7
  call void @llvm.lifetime.end.p0(i64 480, ptr %10) #7
  call void @llvm.lifetime.end.p0(i64 4, ptr %9) #7
  call void @llvm.lifetime.end.p0(i64 8, ptr %8) #7
  call void @llvm.lifetime.end.p0(i64 8, ptr %7) #7
  ret i32 %252
}